(dp0
Vsquawk
p1
V0000
p2
sVflight
p3
VUAL1699 
p4
sVmessages
p5
I449
sVtrack
p6
I287
sVlon
p7
F-110.484229
sValtitude
p8
I34000
sVvert_rate
p9
I0
sVhex
p10
Vaa2ba4
p11
sVvalidposition
p12
I1
sVvalidtrack
p13
I1
sVlat
p14
F32.646561
sVseen
p15
I2
sVspeed
p16
I432
s.